target datalayout = "e-m:e-p270:32:32-p271:32:32-p272:64:64-i64:64-i128:128-f80:128-n8:16:32:64-S128"
target triple = "x86_64-pc-linux-gnu"

%"class.duckdb_re2::Regexp" = type { i8, i8, i16, i16, i16, %union.anon, ptr, %union.anon.0 }
%union.anon = type { ptr }
%union.anon.0 = type { %struct.anon.1 }
%struct.anon.1 = type { i32, ptr }

; Function Attrs: mustprogress nounwind uwtable
define linkonce_odr hidden noundef i32 @_ZN10duckdb_re26Regexp11parse_flagsEv(ptr noundef nonnull align 8 dereferenceable(40) %0) #0 comdat align 2 {
  %2 = alloca ptr, align 8
  store ptr %0, ptr %2, align 8, !tbaa !29
  %3 = load ptr, ptr %2, align 8
  %4 = getelementptr inbounds nuw %"class.duckdb_re2::Regexp", ptr %3, i32 0, i32 2
  %5 = load i16, ptr %4, align 2, !tbaa !44
  %6 = zext i16 %5 to i32
  ret i32 %6
}

; Function Attrs: mustprogress nounwind uwtable
define linkonce_odr hidden noundef ptr @_ZN10duckdb_re26Regexp3subEv(ptr noundef nonnull align 8 dereferenceable(40) %0) #0 comdat align 2 {
  %2 = alloca ptr, align 8
  %3 = alloca ptr, align 8
  store ptr %0, ptr %3, align 8, !tbaa !29
  %4 = load ptr, ptr %3, align 8
  %5 = getelementptr inbounds nuw %"class.duckdb_re2::Regexp", ptr %4, i32 0, i32 4
  %6 = load i16, ptr %5, align 2, !tbaa !79
  %7 = zext i16 %6 to i32
  %8 = icmp sle i32 %7, 1
  br i1 %8, label %9, label %11

9:                                                ; preds = %1
  %10 = getelementptr inbounds nuw %"class.duckdb_re2::Regexp", ptr %4, i32 0, i32 5
  store ptr %10, ptr %2, align 8
  br label %14

11:                                               ; preds = %1
  %12 = getelementptr inbounds nuw %"class.duckdb_re2::Regexp", ptr %4, i32 0, i32 5
  %13 = load ptr, ptr %12, align 8, !tbaa !33
  store ptr %13, ptr %2, align 8
  br label %14

14:                                               ; preds = %11, %9
  %15 = load ptr, ptr %2, align 8
  ret ptr %15
}

; Function Attrs: mustprogress nounwind uwtable
define linkonce_odr hidden noundef i32 @_ZN10duckdb_re26Regexp4nsubEv(ptr noundef nonnull align 8 dereferenceable(40) %0) #0 comdat align 2 {
  %2 = alloca ptr, align 8
  store ptr %0, ptr %2, align 8, !tbaa !29
  %3 = load ptr, ptr %2, align 8
  %4 = getelementptr inbounds nuw %"class.duckdb_re2::Regexp", ptr %3, i32 0, i32 4
  %5 = load i16, ptr %4, align 2, !tbaa !79
  %6 = zext i16 %5 to i32
  ret i32 %6
}

; Function Attrs: mustprogress nounwind uwtable
define linkonce_odr hidden noundef i32 @_ZN10duckdb_re26Regexp2opEv(ptr noundef nonnull align 8 dereferenceable(40) %0) #0 comdat align 2 {
  %2 = alloca ptr, align 8
  store ptr %0, ptr %2, align 8, !tbaa !29
  %3 = load ptr, ptr %2, align 8
  %4 = getelementptr inbounds nuw %"class.duckdb_re2::Regexp", ptr %3, i32 0, i32 0
  %5 = load i8, ptr %4, align 8, !tbaa !36
  %6 = zext i8 %5 to i32
  ret i32 %6
}

; Function Attrs: mustprogress uwtable
define hidden noundef ptr @_ZN10duckdb_re26Regexp19RemoveLeadingRegexpEPS0_(ptr noundef %0) #1 align 2 personality ptr @__gxx_personality_v0 {
  %2 = alloca ptr, align 8
  %3 = alloca ptr, align 8
  %4 = alloca ptr, align 8
  %5 = alloca i32, align 4
  %6 = alloca ptr, align 8
  %7 = alloca i32, align 4
  %8 = alloca ptr, align 8
  %9 = alloca i32, align 4
  store ptr %0, ptr %3, align 8, !tbaa !29
  %10 = load ptr, ptr %3, align 8, !tbaa !29
  %11 = call noundef i32 @_ZN10duckdb_re26Regexp2opEv(ptr noundef nonnull align 8 dereferenceable(40) %10)
  %12 = icmp eq i32 %11, 2
  br i1 %12, label %13, label %15

13:                                               ; preds = %1
  %14 = load ptr, ptr %3, align 8, !tbaa !29
  store ptr %14, ptr %2, align 8
  br label %76

15:                                               ; preds = %1
  %16 = load ptr, ptr %3, align 8, !tbaa !29
  %17 = call noundef i32 @_ZN10duckdb_re26Regexp2opEv(ptr noundef nonnull align 8 dereferenceable(40) %16)
  %18 = icmp eq i32 %17, 5
  br i1 %18, label %19, label %65

19:                                               ; preds = %15
  %20 = load ptr, ptr %3, align 8, !tbaa !29
  %21 = call noundef i32 @_ZN10duckdb_re26Regexp4nsubEv(ptr noundef nonnull align 8 dereferenceable(40) %20)
  %22 = icmp sge i32 %21, 2
  br i1 %22, label %23, label %65

23:                                               ; preds = %19
  call void @llvm.lifetime.start.p0(i64 8, ptr %4) #19
  %24 = load ptr, ptr %3, align 8, !tbaa !29
  %25 = call noundef ptr @_ZN10duckdb_re26Regexp3subEv(ptr noundef nonnull align 8 dereferenceable(40) %24)
  store ptr %25, ptr %4, align 8, !tbaa !118
  %26 = load ptr, ptr %4, align 8, !tbaa !118
  %27 = getelementptr inbounds ptr, ptr %26, i64 0
  %28 = load ptr, ptr %27, align 8, !tbaa !29
  %29 = call noundef i32 @_ZN10duckdb_re26Regexp2opEv(ptr noundef nonnull align 8 dereferenceable(40) %28)
  %30 = icmp eq i32 %29, 2
  br i1 %30, label %31, label %33

31:                                               ; preds = %23
  %32 = load ptr, ptr %3, align 8, !tbaa !29
  store ptr %32, ptr %2, align 8
  store i32 1, ptr %5, align 4
  br label %64

33:                                               ; preds = %23
  %34 = load ptr, ptr %4, align 8, !tbaa !118
  %35 = getelementptr inbounds ptr, ptr %34, i64 0
  %36 = load ptr, ptr %35, align 8, !tbaa !29
  call void @_ZN10duckdb_re26Regexp6DecrefEv(ptr noundef nonnull align 8 dereferenceable(40) %36)
  %37 = load ptr, ptr %4, align 8, !tbaa !118
  %38 = getelementptr inbounds ptr, ptr %37, i64 0
  store ptr null, ptr %38, align 8, !tbaa !29
  %39 = load ptr, ptr %3, align 8, !tbaa !29
  %40 = call noundef i32 @_ZN10duckdb_re26Regexp4nsubEv(ptr noundef nonnull align 8 dereferenceable(40) %39)
  %41 = icmp eq i32 %40, 2
  br i1 %41, label %42, label %50

42:                                               ; preds = %33
  call void @llvm.lifetime.start.p0(i64 8, ptr %6) #19
  %43 = load ptr, ptr %4, align 8, !tbaa !118
  %44 = getelementptr inbounds ptr, ptr %43, i64 1
  %45 = load ptr, ptr %44, align 8, !tbaa !29
  store ptr %45, ptr %6, align 8, !tbaa !29
  %46 = load ptr, ptr %4, align 8, !tbaa !118
  %47 = getelementptr inbounds ptr, ptr %46, i64 1
  store ptr null, ptr %47, align 8, !tbaa !29
  %48 = load ptr, ptr %3, align 8, !tbaa !29
  call void @_ZN10duckdb_re26Regexp6DecrefEv(ptr noundef nonnull align 8 dereferenceable(40) %48)
  %49 = load ptr, ptr %6, align 8, !tbaa !29
  store ptr %49, ptr %2, align 8
  store i32 1, ptr %5, align 4
  call void @llvm.lifetime.end.p0(i64 8, ptr %6) #19
  br label %64

50:                                               ; preds = %33
  %51 = load ptr, ptr %3, align 8, !tbaa !29
  %52 = getelementptr inbounds nuw %"class.duckdb_re2::Regexp", ptr %51, i32 0, i32 4
  %53 = load i16, ptr %52, align 2, !tbaa !79
  %54 = add i16 %53, -1
  store i16 %54, ptr %52, align 2, !tbaa !79
  %55 = load ptr, ptr %4, align 8, !tbaa !118
  %56 = load ptr, ptr %4, align 8, !tbaa !118
  %57 = getelementptr inbounds ptr, ptr %56, i64 1
  %58 = load ptr, ptr %3, align 8, !tbaa !29
  %59 = getelementptr inbounds nuw %"class.duckdb_re2::Regexp", ptr %58, i32 0, i32 4
  %60 = load i16, ptr %59, align 2, !tbaa !79
  %61 = zext i16 %60 to i64
  %62 = mul i64 %61, 8
  call void @llvm.memmove.p0.p0.i64(ptr align 8 %55, ptr align 8 %57, i64 %62, i1 false)
  %63 = load ptr, ptr %3, align 8, !tbaa !29
  store ptr %63, ptr %2, align 8
  store i32 1, ptr %5, align 4
  br label %64

64:                                               ; preds = %50, %42, %31
  call void @llvm.lifetime.end.p0(i64 8, ptr %4) #19
  br label %76

65:                                               ; preds = %19, %15
  call void @llvm.lifetime.start.p0(i64 4, ptr %7) #19
  %66 = load ptr, ptr %3, align 8, !tbaa !29
  %67 = call noundef i32 @_ZN10duckdb_re26Regexp11parse_flagsEv(ptr noundef nonnull align 8 dereferenceable(40) %66)
  store i32 %67, ptr %7, align 4, !tbaa !10
  %68 = load ptr, ptr %3, align 8, !tbaa !29
  call void @_ZN10duckdb_re26Regexp6DecrefEv(ptr noundef nonnull align 8 dereferenceable(40) %68)
  %69 = call noalias noundef nonnull ptr @_Znwm(i64 noundef 40) #23
  %70 = load i32, ptr %7, align 4, !tbaa !10
  invoke void @_ZN10duckdb_re26RegexpC1ENS_8RegexpOpENS0_10ParseFlagsE(ptr noundef nonnull align 8 dereferenceable(40) %69, i32 noundef 2, i32 noundef %70)
          to label %71 unwind label %72

71:                                               ; preds = %65
  store ptr %69, ptr %2, align 8
  store i32 1, ptr %5, align 4
  call void @llvm.lifetime.end.p0(i64 4, ptr %7) #19
  br label %76

72:                                               ; preds = %65
  %73 = landingpad { ptr, i32 }
          cleanup
  %74 = extractvalue { ptr, i32 } %73, 0
  store ptr %74, ptr %8, align 8
  %75 = extractvalue { ptr, i32 } %73, 1
  store i32 %75, ptr %9, align 4
  call void @_ZdlPv(ptr noundef %69) #21
  call void @llvm.lifetime.end.p0(i64 4, ptr %7) #19
  br label %78

76:                                               ; preds = %71, %64, %13
  %77 = load ptr, ptr %2, align 8
  ret ptr %77

78:                                               ; preds = %72
  %79 = load ptr, ptr %8, align 8
  %80 = load i32, ptr %9, align 4
  %81 = insertvalue { ptr, i32 } poison, ptr %79, 0
  %82 = insertvalue { ptr, i32 } %81, i32 %80, 1
  resume { ptr, i32 } %82
}