; Function Attrs: mustprogress uwtable
define hidden noundef ptr @_ZN10duckdb_re26Regexp19RemoveLeadingRegexpEPS0_(ptr noundef %0) local_unnamed_addr #9 align 2 personality ptr @__gxx_personality_v0 {
  %2 = load i8, ptr %0, align 8, !tbaa !26
  switch i8 %2, label %24 [
    i8 2, label %31
    i8 5, label %3
  ]

3:                                                ; preds = %1
  %4 = getelementptr inbounds nuw i8, ptr %0, i64 6
  %5 = load i16, ptr %4, align 2, !tbaa !62
  %6 = icmp ugt i16 %5, 1
  br i1 %6, label %7, label %24

7:                                                ; preds = %3
  %8 = getelementptr inbounds nuw i8, ptr %0, i64 8
  %9 = load ptr, ptr %8, align 8
  %10 = load ptr, ptr %9, align 8, !tbaa !63
  %11 = load i8, ptr %10, align 8, !tbaa !26
  %12 = icmp eq i8 %11, 2
  br i1 %12, label %31, label %13

13:                                               ; preds = %7
  tail call void @_ZN10duckdb_re26Regexp6DecrefEv(ptr noundef nonnull align 8 dereferenceable(40) %10)
  store ptr null, ptr %9, align 8, !tbaa !63
  %14 = load i16, ptr %4, align 2, !tbaa !62
  %15 = icmp eq i16 %14, 2
  br i1 %15, label %16, label %19

16:                                               ; preds = %13
  %17 = getelementptr inbounds nuw i8, ptr %9, i64 8
  %18 = load ptr, ptr %17, align 8, !tbaa !63
  store ptr null, ptr %17, align 8, !tbaa !63
  tail call void @_ZN10duckdb_re26Regexp6DecrefEv(ptr noundef nonnull align 8 dereferenceable(40) %0)
  br label %31

19:                                               ; preds = %13
  %20 = add i16 %14, -1
  store i16 %20, ptr %4, align 2, !tbaa !62
  %21 = getelementptr inbounds nuw i8, ptr %9, i64 8
  %22 = zext i16 %20 to i64
  %23 = shl nuw nsw i64 %22, 3
  tail call void @llvm.memmove.p0.p0.i64(ptr nonnull align 8 %9, ptr nonnull align 8 %21, i64 %23, i1 false)
  br label %31

24:                                               ; preds = %1, %3
  %25 = getelementptr inbounds nuw i8, ptr %0, i64 2
  %26 = load i16, ptr %25, align 2, !tbaa !50
  %27 = zext i16 %26 to i32
  tail call void @_ZN10duckdb_re26Regexp6DecrefEv(ptr noundef nonnull align 8 dereferenceable(40) %0)
  %28 = tail call noalias noundef nonnull dereferenceable(40) ptr @_Znwm(i64 noundef 40) #33
  invoke void @_ZN10duckdb_re26RegexpC1ENS_8RegexpOpENS0_10ParseFlagsE(ptr noundef nonnull align 8 dereferenceable(40) %28, i32 noundef 2, i32 noundef %27)
          to label %31 unwind label %29

29:                                               ; preds = %24
  %30 = landingpad { ptr, i32 }
          cleanup
  tail call void @_ZdlPv(ptr noundef nonnull %28) #30
  resume { ptr, i32 } %30

31:                                               ; preds = %1, %24, %16, %19, %7
  %.0 = phi ptr [ %0, %1 ], [ %18, %16 ], [ %0, %19 ], [ %0, %7 ], [ %28, %24 ]
  ret ptr %.0
}